; ModuleID = '24/2403.c'
source_filename = "24/2403.c"
target datalayout = "e-m:e-p270:32:32-p271:32:32-p272:64:64-i64:64-f80:128-n8:16:32:64-S128"
target triple = "x86_64-pc-linux-gnu"

@.str = private unnamed_addr constant [3 x i8] c"%c\00", align 1
@.str.1 = private unnamed_addr constant [2 x i8] c"\0A\00", align 1

; Function Attrs: noinline nounwind uwtable
define dso_local i32 @main() #0 {
  %1 = alloca i32, align 4
  %2 = alloca [10000 x i8], align 16
  %3 = alloca i32, align 4
  %4 = alloca i32, align 4
  %5 = alloca i32, align 4
  %6 = alloca i32, align 4
  %7 = alloca i32, align 4
  %8 = alloca i32, align 4
  %9 = alloca i32, align 4
  %10 = alloca i32, align 4
  store i32 0, i32* %1, align 4
  store i32 0, i32* %5, align 4
  store i32 1000, i32* %6, align 4
  store i32 0, i32* %7, align 4
  store i32 1, i32* %9, align 4
  store i32 1, i32* %10, align 4
  %11 = getelementptr inbounds [10000 x i8], [10000 x i8]* %2, i64 0, i64 0
  %12 = call i32 (i8*, ...) bitcast (i32 (...)* @gets to i32 (i8*, ...)*)(i8* %11)
  %13 = getelementptr inbounds [10000 x i8], [10000 x i8]* %2, i64 0, i64 0
  %14 = call i64 @strlen(i8* %13) #3
  %15 = trunc i64 %14 to i32
  store i32 %15, i32* %8, align 4
  store i32 0, i32* %3, align 4
  br label %16

16:                                               ; preds = %104, %0
  %17 = load i32, i32* %3, align 4
  %18 = load i32, i32* %8, align 4
  %19 = icmp sle i32 %17, %18
  br i1 %19, label %20, label %107

20:                                               ; preds = %16
  %21 = load i32, i32* %3, align 4
  %22 = sext i32 %21 to i64
  %23 = getelementptr inbounds [10000 x i8], [10000 x i8]* %2, i64 0, i64 %22
  %24 = load i8, i8* %23, align 1
  %25 = sext i8 %24 to i32
  %26 = icmp sge i32 %25, 65
  br i1 %26, label %27, label %34

27:                                               ; preds = %20
  %28 = load i32, i32* %3, align 4
  %29 = sext i32 %28 to i64
  %30 = getelementptr inbounds [10000 x i8], [10000 x i8]* %2, i64 0, i64 %29
  %31 = load i8, i8* %30, align 1
  %32 = sext i8 %31 to i32
  %33 = icmp sle i32 %32, 90
  br i1 %33, label %48, label %34

34:                                               ; preds = %27, %20
  %35 = load i32, i32* %3, align 4
  %36 = sext i32 %35 to i64
  %37 = getelementptr inbounds [10000 x i8], [10000 x i8]* %2, i64 0, i64 %36
  %38 = load i8, i8* %37, align 1
  %39 = sext i8 %38 to i32
  %40 = icmp sge i32 %39, 97
  br i1 %40, label %41, label %51

41:                                               ; preds = %34
  %42 = load i32, i32* %3, align 4
  %43 = sext i32 %42 to i64
  %44 = getelementptr inbounds [10000 x i8], [10000 x i8]* %2, i64 0, i64 %43
  %45 = load i8, i8* %44, align 1
  %46 = sext i8 %45 to i32
  %47 = icmp sle i32 %46, 122
  br i1 %47, label %48, label %51

48:                                               ; preds = %41, %27
  %49 = load i32, i32* %7, align 4
  %50 = add nsw i32 %49, 1
  store i32 %50, i32* %7, align 4
  br label %103

51:                                               ; preds = %41, %34
  %52 = load i32, i32* %3, align 4
  %53 = sub nsw i32 %52, 1
  %54 = sext i32 %53 to i64
  %55 = getelementptr inbounds [10000 x i8], [10000 x i8]* %2, i64 0, i64 %54
  %56 = load i8, i8* %55, align 1
  %57 = sext i8 %56 to i32
  %58 = icmp sge i32 %57, 65
  br i1 %58, label %59, label %67

59:                                               ; preds = %51
  %60 = load i32, i32* %3, align 4
  %61 = sub nsw i32 %60, 1
  %62 = sext i32 %61 to i64
  %63 = getelementptr inbounds [10000 x i8], [10000 x i8]* %2, i64 0, i64 %62
  %64 = load i8, i8* %63, align 1
  %65 = sext i8 %64 to i32
  %66 = icmp sle i32 %65, 90
  br i1 %66, label %83, label %67

67:                                               ; preds = %59, %51
  %68 = load i32, i32* %3, align 4
  %69 = sub nsw i32 %68, 1
  %70 = sext i32 %69 to i64
  %71 = getelementptr inbounds [10000 x i8], [10000 x i8]* %2, i64 0, i64 %70
  %72 = load i8, i8* %71, align 1
  %73 = sext i8 %72 to i32
  %74 = icmp sge i32 %73, 97
  br i1 %74, label %75, label %102

75:                                               ; preds = %67
  %76 = load i32, i32* %3, align 4
  %77 = sub nsw i32 %76, 1
  %78 = sext i32 %77 to i64
  %79 = getelementptr inbounds [10000 x i8], [10000 x i8]* %2, i64 0, i64 %78
  %80 = load i8, i8* %79, align 1
  %81 = sext i8 %80 to i32
  %82 = icmp sle i32 %81, 122
  br i1 %82, label %83, label %102

83:                                               ; preds = %75, %59
  %84 = load i32, i32* %7, align 4
  %85 = load i32, i32* %6, align 4
  %86 = icmp slt i32 %84, %85
  br i1 %86, label %87, label %92

87:                                               ; preds = %83
  %88 = load i32, i32* %3, align 4
  %89 = load i32, i32* %7, align 4
  %90 = sub nsw i32 %88, %89
  store i32 %90, i32* %9, align 4
  %91 = load i32, i32* %7, align 4
  store i32 %91, i32* %6, align 4
  br label %92

92:                                               ; preds = %87, %83
  %93 = load i32, i32* %7, align 4
  %94 = load i32, i32* %5, align 4
  %95 = icmp sgt i32 %93, %94
  br i1 %95, label %96, label %101

96:                                               ; preds = %92
  %97 = load i32, i32* %3, align 4
  %98 = load i32, i32* %7, align 4
  %99 = sub nsw i32 %97, %98
  store i32 %99, i32* %10, align 4
  %100 = load i32, i32* %7, align 4
  store i32 %100, i32* %5, align 4
  br label %101

101:                                              ; preds = %96, %92
  store i32 0, i32* %7, align 4
  br label %102

102:                                              ; preds = %101, %75, %67
  br label %103

103:                                              ; preds = %102, %48
  br label %104

104:                                              ; preds = %103
  %105 = load i32, i32* %3, align 4
  %106 = add nsw i32 %105, 1
  store i32 %106, i32* %3, align 4
  br label %16

107:                                              ; preds = %16
  %108 = load i32, i32* %10, align 4
  store i32 %108, i32* %3, align 4
  br label %109

109:                                              ; preds = %122, %107
  %110 = load i32, i32* %3, align 4
  %111 = load i32, i32* %5, align 4
  %112 = load i32, i32* %10, align 4
  %113 = add nsw i32 %111, %112
  %114 = icmp slt i32 %110, %113
  br i1 %114, label %115, label %125

115:                                              ; preds = %109
  %116 = load i32, i32* %3, align 4
  %117 = sext i32 %116 to i64
  %118 = getelementptr inbounds [10000 x i8], [10000 x i8]* %2, i64 0, i64 %117
  %119 = load i8, i8* %118, align 1
  %120 = sext i8 %119 to i32
  %121 = call i32 (i8*, ...) @printf(i8* getelementptr inbounds ([3 x i8], [3 x i8]* @.str, i64 0, i64 0), i32 %120)
  br label %122

122:                                              ; preds = %115
  %123 = load i32, i32* %3, align 4
  %124 = add nsw i32 %123, 1
  store i32 %124, i32* %3, align 4
  br label %109

125:                                              ; preds = %109
  %126 = call i32 (i8*, ...) @printf(i8* getelementptr inbounds ([2 x i8], [2 x i8]* @.str.1, i64 0, i64 0))
  %127 = load i32, i32* %9, align 4
  store i32 %127, i32* %3, align 4
  br label %128

128:                                              ; preds = %141, %125
  %129 = load i32, i32* %3, align 4
  %130 = load i32, i32* %9, align 4
  %131 = load i32, i32* %6, align 4
  %132 = add nsw i32 %130, %131
  %133 = icmp slt i32 %129, %132
  br i1 %133, label %134, label %144

134:                                              ; preds = %128
  %135 = load i32, i32* %3, align 4
  %136 = sext i32 %135 to i64
  %137 = getelementptr inbounds [10000 x i8], [10000 x i8]* %2, i64 0, i64 %136
  %138 = load i8, i8* %137, align 1
  %139 = sext i8 %138 to i32
  %140 = call i32 (i8*, ...) @printf(i8* getelementptr inbounds ([3 x i8], [3 x i8]* @.str, i64 0, i64 0), i32 %139)
  br label %141

141:                                              ; preds = %134
  %142 = load i32, i32* %3, align 4
  %143 = add nsw i32 %142, 1
  store i32 %143, i32* %3, align 4
  br label %128

144:                                              ; preds = %128
  ret i32 0
}

declare dso_local i32 @gets(...) #1

; Function Attrs: nounwind readonly
declare dso_local i64 @strlen(i8*) #2

declare dso_local i32 @printf(i8*, ...) #1


!llvm.module.flags = !{!0}
!llvm.ident = !{!1}

!0 = !{i32 1, !"wchar_size", i32 4}
!1 = !{!"clang version 10.0.0-4ubuntu1 "}
